; Function Attrs: mustprogress uwtable
define hidden noundef zeroext i1 @_ZN6spacer14is_arith_lemmaER11ast_managerP3app(ptr noundef nonnull readnone align 8 captures(none) dereferenceable(976) %0, ptr noundef readonly captures(none) %1) local_unnamed_addr #3 {
  %3 = alloca %class.symbol, align 8
  %4 = getelementptr inbounds nuw i8, ptr %1, i64 16
  %5 = load ptr, ptr %4, align 8, !tbaa !3
  %6 = getelementptr inbounds nuw i8, ptr %5, i64 24
  %7 = load ptr, ptr %6, align 8, !tbaa !13
  %8 = icmp eq ptr %7, null
  br i1 %8, label %_ZNK3app13get_decl_kindEv.exit.thread, label %_ZNK3app13get_decl_kindEv.exit

_ZNK3app13get_decl_kindEv.exit:                   ; preds = %2
  %9 = getelementptr inbounds nuw i8, ptr %7, i64 4
  %10 = load i32, ptr %9, align 4, !tbaa !18
  %11 = icmp eq i32 %10, 54
  br i1 %11, label %12, label %_ZNK3app13get_decl_kindEv.exit.thread

12:                                               ; preds = %_ZNK3app13get_decl_kindEv.exit
  call void @llvm.lifetime.start.p0(i64 8, ptr nonnull %3) #23
  %13 = getelementptr inbounds nuw i8, ptr %7, i64 8
  %14 = load ptr, ptr %13, align 8, !tbaa !23
  %15 = icmp eq ptr %14, null
  br i1 %15, label %_ZNK9parameter9is_symbolER6symbol.exit, label %_ZNK4decl18get_num_parametersEv.exit

_ZNK4decl18get_num_parametersEv.exit:             ; preds = %12
  %16 = getelementptr inbounds i8, ptr %14, i64 -4
  %17 = load i32, ptr %16, align 4, !tbaa !24
  %.not = icmp eq i32 %17, 0
  br i1 %.not, label %_ZNK9parameter9is_symbolER6symbol.exit, label %18

18:                                               ; preds = %_ZNK4decl18get_num_parametersEv.exit
  %19 = getelementptr inbounds nuw i8, ptr %14, i64 8
  %20 = load i8, ptr %19, align 8, !tbaa !25
  %21 = icmp eq i8 %20, 2
  br i1 %21, label %22, label %_ZNK9parameter9is_symbolER6symbol.exit

22:                                               ; preds = %18
  %.sroa.0.0.copyload.i.i = load ptr, ptr %14, align 8, !tbaa !27
  store ptr %.sroa.0.0.copyload.i.i, ptr %3, align 8, !tbaa !27
  %23 = call noundef zeroext i1 @_ZeqRK6symbolPKc(ptr noundef nonnull align 8 dereferenceable(8) %3, ptr noundef nonnull @.str)
  br label %_ZNK9parameter9is_symbolER6symbol.exit

_ZNK9parameter9is_symbolER6symbol.exit:           ; preds = %12, %18, %22, %_ZNK4decl18get_num_parametersEv.exit
  %24 = phi i1 [ false, %_ZNK4decl18get_num_parametersEv.exit ], [ %23, %22 ], [ false, %18 ], [ false, %12 ]
  call void @llvm.lifetime.end.p0(i64 8, ptr nonnull %3) #23
  br label %_ZNK3app13get_decl_kindEv.exit.thread

_ZNK3app13get_decl_kindEv.exit.thread:            ; preds = %2, %_ZNK3app13get_decl_kindEv.exit, %_ZNK9parameter9is_symbolER6symbol.exit
  %.0 = phi i1 [ %24, %_ZNK9parameter9is_symbolER6symbol.exit ], [ false, %_ZNK3app13get_decl_kindEv.exit ], [ false, %2 ]
  ret i1 %.0
}